Certificate:
    Data:
        Version: 3 (0x2)
        Serial Number: 5 (0x5)
    Signature Algorithm: sha256WithRSAEncryption
        Issuer: C=CN, ST=GuangDong, L=ShenZhen, O=Madmalls.com Co.,Ltd, OU=Madmalls.com Root CA, CN=Root CA
        Validity
            Not Before: Jun 11 07:22:30 2019 GMT
            Not After : Jun 10 07:22:30 2020 GMT
        Subject: C=CN, ST=GuangDong, O=Madmalls.com Co.,Ltd, OU=gRPC Server, CN=*.wangy.com
        Subject Public Key Info:
            Public Key Algorithm: rsaEncryption
                Public-Key: (2048 bit)
                Modulus:
                    00:e2:93:8c:43:64:e9:c6:02:6b:d1:98:f3:79:47:
                    d5:99:c6:46:a8:6d:24:cc:a0:d8:3b:ec:e4:d0:83:
                    79:42:f5:bf:23:e1:0e:34:b3:f1:35:c6:27:6e:44:
                    58:48:ca:91:42:8c:6c:2f:6c:9d:09:d0:1b:73:d8:
                    42:f4:70:71:6c:40:f7:6c:71:63:39:db:d1:f8:f6:
                    d4:f8:b7:18:03:7a:7d:32:0c:3f:f4:fd:0a:4c:e3:
                    ad:71:33:8b:e6:25:53:52:d8:72:67:9f:56:1b:7e:
                    d4:b7:27:28:0e:1d:28:92:b6:94:09:4f:bd:51:ef:
                    06:bc:80:39:97:cb:d2:20:8c:0c:ff:cf:33:97:7d:
                    7a:0e:01:e7:90:a2:30:64:34:be:3e:78:d9:3f:19:
                    7b:27:fc:c1:b2:0d:07:34:8b:6e:2e:0b:50:f4:8a:
                    be:07:63:98:25:24:00:97:89:d2:ad:96:cd:56:01:
                    84:df:dc:af:be:a8:12:ef:f8:77:75:46:2d:49:21:
                    ae:1c:bc:b1:87:94:4d:8e:b7:5d:7c:01:0a:c6:e6:
                    32:32:47:c3:d1:38:ab:5d:02:4f:72:c5:10:9c:a2:
                    83:9d:ee:a1:37:ee:02:bb:50:8a:78:ba:bf:f7:f7:
                    69:b0:ff:17:31:14:68:a5:db:05:ef:ab:2e:53:ac:
                    ae:df
                Exponent: 65537 (0x10001)
        X509v3 extensions:
            X509v3 Subject Alternative Name: 
                DNS:www.wangy.com, DNS:blog.wangy.com, IP Address:192.168.40.123
    Signature Algorithm: sha256WithRSAEncryption
         42:83:8d:68:cf:9b:93:59:63:94:5d:62:a8:14:bb:79:f4:09:
         cf:6d:ea:e5:86:bd:9a:fc:28:e2:9b:c5:fa:df:e9:50:b0:ac:
         28:4c:7a:ff:38:67:1a:9b:e6:aa:8d:bd:da:3d:6f:e8:49:fa:
         f2:7e:fa:dd:4b:a8:4d:06:ee:1c:47:ff:36:99:23:24:9b:4c:
         19:d1:f4:1c:85:c7:94:84:54:19:b0:78:6f:d7:54:25:a8:da:
         b1:18:76:1b:71:15:ad:35:d5:64:b6:6f:ee:80:6d:82:98:71:
         b8:db:bb:e5:01:da:f7:f1:aa:97:a7:ae:f8:90:b6:f6:ac:38:
         fa:9e:a2:15:10:2f:ca:c5:eb:bf:91:67:bc:f7:ee:2a:0e:80:
         35:ad:6d:03:20:98:4f:df:39:5b:ac:f2:ef:43:01:95:b9:0a:
         7b:29:b4:6d:83:de:1f:94:a6:69:6b:42:18:ef:cb:e6:68:66:
         b2:79:59:f8:ae:9f:89:25:ec:ee:46:f9:3c:34:ab:74:7d:72:
         0a:3f:39:6e:07:28:79:e5:8c:8b:3a:da:1f:b9:7c:af:0c:0a:
         0c:71:3d:aa:76:87:69:4c:75:9a:0b:8f:8e:10:f8:d6:53:c9:
         35:8b:10:42:0a:32:01:a5:83:e3:22:0e:86:c0:1d:87:75:af:
         cb:30:cb:1a
-----BEGIN CERTIFICATE-----
MIIDnjCCAoagAwIBAgIBBTANBgkqhkiG9w0BAQsFADCBhDELMAkGA1UEBhMCQ04x
EjAQBgNVBAgMCUd1YW5nRG9uZzERMA8GA1UEBwwIU2hlblpoZW4xHTAbBgNVBAoM
FE1hZG1hbGxzLmNvbSBDby4sTHRkMR0wGwYDVQQLDBRNYWRtYWxscy5jb20gUm9v
dCBDQTEQMA4GA1UEAwwHUm9vdCBDQTAeFw0xOTA2MTEwNzIyMzBaFw0yMDA2MTAw
NzIyMzBaMGwxCzAJBgNVBAYTAkNOMRIwEAYDVQQIDAlHdWFuZ0RvbmcxHTAbBgNV
BAoMFE1hZG1hbGxzLmNvbSBDby4sTHRkMRQwEgYDVQQLDAtnUlBDIFNlcnZlcjEU
MBIGA1UEAwwLKi53YW5neS5jb20wggEiMA0GCSqGSIb3DQEBAQUAA4IBDwAwggEK
AoIBAQDik4xDZOnGAmvRmPN5R9WZxkaobSTMoNg77OTQg3lC9b8j4Q40s/E1xidu
RFhIypFCjGwvbJ0J0Btz2EL0cHFsQPdscWM529H49tT4txgDen0yDD/0/QpM461x
M4vmJVNS2HJnn1YbftS3JygOHSiStpQJT71R7wa8gDmXy9IgjAz/zzOXfXoOAeeQ
ojBkNL4+eNk/GXsn/MGyDQc0i24uC1D0ir4HY5glJACXidKtls1WAYTf3K++qBLv
+Hd1Ri1JIa4cvLGHlE2Ot118AQrG5jIyR8PROKtdAk9yxRCcooOd7qE37gK7UIp4
ur/392mw/xcxFGil2wXvqy5TrK7fAgMBAAGjMjAwMC4GA1UdEQQnMCWCDXd3dy53
YW5neS5jb22CDmJsb2cud2FuZ3kuY29thwTAqCh7MA0GCSqGSIb3DQEBCwUAA4IB
AQBCg41oz5uTWWOUXWKoFLt59AnPberlhr2a/Cjim8X63+lQsKwoTHr/OGcam+aq
jb3aPW/oSfryfvrdS6hNBu4cR/82mSMkm0wZ0fQchceUhFQZsHhv11QlqNqxGHYb
cRWtNdVktm/ugG2CmHG427vlAdr38aqXp674kLb2rDj6nqIVEC/Kxeu/kWe89+4q
DoA1rW0DIJhP3zlbrPLvQwGVuQp7KbRtg94flKZpa0IY78vmaGayeVn4rp+JJezu
Rvk8NKt0fXIKPzluByh55YyLOtofuXyvDAoMcT2qdodpTHWaC4+OEPjWU8k1ixBC
CjIBpYPjIg6GwB2Hda/LMMsa
-----END CERTIFICATE-----
